; Function Attrs: mustprogress uwtable
define dso_local void @_ZN3net14QuicSpdyStream19MarkHeadersConsumedEm(ptr noundef nonnull align 8 dereferenceable(664) %this, i64 noundef %bytes_consumed) local_unnamed_addr #0 align 2 {
entry:
  %decompressed_headers_ = getelementptr inbounds i8, ptr %this, i64 408
  %call = tail call noundef nonnull align 8 dereferenceable(32) ptr @_ZNSt7__cxx1112basic_stringIcSt11char_traitsIcESaIcEE5eraseEmm(ptr noundef nonnull align 8 dereferenceable(32) %decompressed_headers_, i64 noundef 0, i64 noundef %bytes_consumed)
  %headers_decompressed_.i = getelementptr inbounds i8, ptr %this, i64 400
  %0 = load i8, ptr %headers_decompressed_.i, align 8
  %1 = and i8 %0, 1
  %tobool.not.i = icmp eq i8 %1, 0
  br i1 %tobool.not.i, label %if.end, label %land.lhs.true.i

land.lhs.true.i:                                  ; preds = %entry
  %call.i = tail call noundef zeroext i1 @_ZNKSt7__cxx1112basic_stringIcSt11char_traitsIcESaIcEE5emptyEv(ptr noundef nonnull align 8 dereferenceable(32) %decompressed_headers_) #12
  br i1 %call.i, label %_ZNK3net14QuicSpdyStream22FinishedReadingHeadersEv.exit, label %if.end

_ZNK3net14QuicSpdyStream22FinishedReadingHeadersEv.exit: ; preds = %land.lhs.true.i
  %_M_finish.i.i.i = getelementptr inbounds i8, ptr %this, i64 496
  %_M_start.i.i.i = getelementptr inbounds i8, ptr %this, i64 464
  %2 = load ptr, ptr %_M_finish.i.i.i, align 8
  %3 = load ptr, ptr %_M_start.i.i.i, align 8
  %cmp.i.i.i.i = icmp eq ptr %2, %3
  br i1 %cmp.i.i.i.i, label %if.then, label %if.end

if.then:                                          ; preds = %_ZNK3net14QuicSpdyStream22FinishedReadingHeadersEv.exit
  %sequencer_.i = getelementptr inbounds i8, ptr %this, i64 40
  tail call void @_ZN3net19QuicStreamSequencer12SetUnblockedEv(ptr noundef nonnull align 8 dereferenceable(169) %sequencer_.i)
  br label %if.end

if.end:                                           ; preds = %entry, %land.lhs.true.i, %if.then, %_ZNK3net14QuicSpdyStream22FinishedReadingHeadersEv.exit
  ret void
}